; Function Attrs: mustprogress nofree norecurse nosync nounwind willreturn memory(argmem: read) uwtable
define noundef i32 @_ZNK10open_spiel10bargaining14BargainingGame18NumDistinctActionsEv(ptr nocapture noundef nonnull readonly align 8 dereferenceable(352) %0) unnamed_addr #10 align 2 {
  %2 = getelementptr inbounds nuw i8, ptr %0, i64 304
  %3 = getelementptr inbounds i8, ptr %0, i64 312
  %4 = load ptr, ptr %3, align 8
  %5 = load ptr, ptr %2, align 8
  %6 = ptrtoint ptr %4 to i64
  %7 = ptrtoint ptr %5 to i64
  %8 = sub i64 %6, %7
  %9 = sdiv exact i64 %8, 24
  %10 = trunc i64 %9 to i32
  %11 = add i32 %10, 1
  ret i32 %11
}